target datalayout = "e-m:e-p270:32:32-p271:32:32-p272:64:64-i64:64-i128:128-f80:128-n8:16:32:64-S128"
target triple = "x86_64-pc-linux-gnu"

%struct.cli_pcre_data = type { ptr, ptr, i32, ptr, i32 }
%struct.cli_pcre_results = type { i32, [2 x i32], ptr }

; Function Attrs: nounwind uwtable
define i32 @cli_pcre_results_reset(ptr noundef %0, ptr noundef %1) #0 {
  %3 = alloca i32, align 4
  %4 = alloca ptr, align 8
  %5 = alloca ptr, align 8
  store ptr %0, ptr %4, align 8
  store ptr %1, ptr %5, align 8
  %6 = load ptr, ptr %4, align 8
  %7 = getelementptr inbounds %struct.cli_pcre_results, ptr %6, i32 0, i32 0
  store i32 0, ptr %7, align 8
  %8 = load ptr, ptr %4, align 8
  %9 = getelementptr inbounds %struct.cli_pcre_results, ptr %8, i32 0, i32 1
  %10 = getelementptr inbounds [2 x i32], ptr %9, i64 0, i64 1
  store i32 0, ptr %10, align 4
  %11 = load ptr, ptr %4, align 8
  %12 = getelementptr inbounds %struct.cli_pcre_results, ptr %11, i32 0, i32 1
  %13 = getelementptr inbounds [2 x i32], ptr %12, i64 0, i64 0
  store i32 0, ptr %13, align 4
  %14 = load ptr, ptr %4, align 8
  %15 = getelementptr inbounds %struct.cli_pcre_results, ptr %14, i32 0, i32 2
  %16 = load ptr, ptr %15, align 8
  %17 = icmp ne ptr %16, null
  br i1 %17, label %18, label %22

18:                                               ; preds = %2
  %19 = load ptr, ptr %4, align 8
  %20 = getelementptr inbounds %struct.cli_pcre_results, ptr %19, i32 0, i32 2
  %21 = load ptr, ptr %20, align 8
  call void @pcre2_match_data_free_8(ptr noundef %21)
  br label %22

22:                                               ; preds = %18, %2
  %23 = load ptr, ptr %5, align 8
  %24 = getelementptr inbounds %struct.cli_pcre_data, ptr %23, i32 0, i32 0
  %25 = load ptr, ptr %24, align 8
  %26 = call ptr @pcre2_match_data_create_from_pattern_8(ptr noundef %25, ptr noundef null)
  %27 = load ptr, ptr %4, align 8
  %28 = getelementptr inbounds %struct.cli_pcre_results, ptr %27, i32 0, i32 2
  store ptr %26, ptr %28, align 8
  %29 = load ptr, ptr %4, align 8
  %30 = getelementptr inbounds %struct.cli_pcre_results, ptr %29, i32 0, i32 2
  %31 = load ptr, ptr %30, align 8
  %32 = icmp ne ptr %31, null
  br i1 %32, label %34, label %33

33:                                               ; preds = %22
  store i32 20, ptr %3, align 4
  br label %35

34:                                               ; preds = %22
  store i32 0, ptr %3, align 4
  br label %35

35:                                               ; preds = %34, %33
  %36 = load i32, ptr %3, align 4
  ret i32 %36
}