; Function Attrs: nounwind uwtable
define i32 @cli_pcre_results_reset(ptr nocapture noundef %0, ptr nocapture noundef readonly %1) local_unnamed_addr #0 {
  store i32 0, ptr %0, align 8
  %3 = getelementptr inbounds i8, ptr %0, i64 4
  %4 = getelementptr inbounds i8, ptr %0, i64 8
  store i32 0, ptr %4, align 4
  store i32 0, ptr %3, align 4
  %5 = getelementptr inbounds i8, ptr %0, i64 16
  %6 = load ptr, ptr %5, align 8
  %.not = icmp eq ptr %6, null
  br i1 %.not, label %8, label %7

7:                                                ; preds = %2
  tail call void @pcre2_match_data_free_8(ptr noundef nonnull %6) #6
  br label %8

8:                                                ; preds = %7, %2
  %9 = load ptr, ptr %1, align 8
  %10 = tail call ptr @pcre2_match_data_create_from_pattern_8(ptr noundef %9, ptr noundef null) #6
  store ptr %10, ptr %5, align 8
  %.not9 = icmp eq ptr %10, null
  %. = select i1 %.not9, i32 20, i32 0
  ret i32 %.
}